; Function Attrs: nounwind uwtable
define dso_local noalias noundef ptr @aofInfoDup(ptr noundef readonly captures(address_is_null) %0) local_unnamed_addr #0 {
  %.not = icmp eq ptr %0, null
  br i1 %.not, label %2, label %3, !prof !5

2:                                                ; preds = %1
  tail call void @_serverAssert(ptr noundef nonnull @.str.2, ptr noundef nonnull @.str.1, i32 noundef 103) #20
  tail call void @abort() #21
  unreachable

3:                                                ; preds = %1
  %4 = tail call noalias noundef dereferenceable_or_null(40) ptr @zcalloc(i64 noundef 40) #19
  %5 = getelementptr inbounds nuw i8, ptr %4, i64 24
  %6 = load ptr, ptr %0, align 8, !tbaa !6
  %7 = tail call ptr @sdsdup(ptr noundef %6) #20
  store ptr %7, ptr %4, align 8, !tbaa !6
  %8 = getelementptr inbounds nuw i8, ptr %0, i64 8
  %9 = load i64, ptr %8, align 8, !tbaa !14
  %10 = getelementptr inbounds nuw i8, ptr %4, i64 8
  store i64 %9, ptr %10, align 8, !tbaa !14
  %11 = getelementptr inbounds nuw i8, ptr %0, i64 16
  %12 = load i32, ptr %11, align 8, !tbaa !15
  %13 = getelementptr inbounds nuw i8, ptr %4, i64 16
  store i32 %12, ptr %13, align 8, !tbaa !15
  %14 = getelementptr inbounds nuw i8, ptr %0, i64 24
  %15 = load i64, ptr %14, align 8, !tbaa !16
  store i64 %15, ptr %5, align 8, !tbaa !16
  %16 = getelementptr inbounds nuw i8, ptr %0, i64 32
  %17 = load i64, ptr %16, align 8, !tbaa !17
  %18 = getelementptr inbounds nuw i8, ptr %4, i64 32
  store i64 %17, ptr %18, align 8, !tbaa !17
  ret ptr %4
}